; Function Attrs: mustprogress uwtable
define hidden void @_ZN2cv19Jpeg2KJP2OpjDecoderC2Ev(ptr noundef nonnull align 8 dereferenceable(328) %0) unnamed_addr #3 align 2 personality ptr @__gxx_personality_v0 {
  %2 = alloca %"class.std::__cxx11::basic_string", align 8
  %3 = alloca %"class.std::allocator", align 1
  tail call void @_ZN2cv16BaseImageDecoderC2Ev(ptr noundef nonnull align 8 dereferenceable(272) %0)
  %4 = getelementptr inbounds i8, ptr %0, i64 272
  %5 = getelementptr inbounds i8, ptr %0, i64 324
  tail call void @llvm.memset.p0.i64(ptr noundef nonnull align 8 dereferenceable(52) %4, i8 0, i64 52, i1 false)
  store i32 2, ptr %5, align 4
  %6 = getelementptr inbounds i8, ptr %0, i64 184
  store i8 1, ptr %6, align 8
  store ptr getelementptr inbounds inrange(-16, 104) (i8, ptr @_ZTVN2cv19Jpeg2KJP2OpjDecoderE, i64 16), ptr %0, align 8
  call void @_ZNSaIcEC1Ev(ptr noundef nonnull align 1 dereferenceable(1) %3) #19
  invoke void @_ZNSt7__cxx1112basic_stringIcSt11char_traitsIcESaIcEEC1EPKcmRKS3_(ptr noundef nonnull align 8 dereferenceable(32) %2, ptr noundef nonnull @_ZZN2cv19Jpeg2KJP2OpjDecoderC1EvE12JP2Signature, i64 noundef 12, ptr noundef nonnull align 1 dereferenceable(1) %3)
          to label %7 unwind label %10

7:                                                ; preds = %1
  %8 = getelementptr inbounds i8, ptr %0, i64 56
  %9 = call noundef nonnull align 8 dereferenceable(32) ptr @_ZNSt7__cxx1112basic_stringIcSt11char_traitsIcESaIcEEaSEOS4_(ptr noundef nonnull align 8 dereferenceable(32) %8, ptr noundef nonnull align 8 dereferenceable(32) %2) #19
  call void @_ZNSt7__cxx1112basic_stringIcSt11char_traitsIcESaIcEED1Ev(ptr noundef nonnull align 8 dereferenceable(32) %2) #19
  call void @_ZNSaIcED1Ev(ptr noundef nonnull align 1 dereferenceable(1) %3) #19
  ret void

10:                                               ; preds = %1
  %11 = landingpad { ptr, i32 }
          cleanup
  call void @_ZNSaIcED1Ev(ptr noundef nonnull align 1 dereferenceable(1) %3) #19
  call void @_ZN2cv6detail20Jpeg2KOpjDecoderBaseD2Ev(ptr noundef nonnull align 8 dereferenceable(328) %0) #19
  resume { ptr, i32 } %11
}